target datalayout = "e-m:e-p270:32:32-p271:32:32-p272:64:64-i64:64-i128:128-f80:128-n8:16:32:64-S128"
target triple = "x86_64-pc-linux-gnu"

%class.MeshLabPluginLogger = type { ptr, ptr }

; Function Attrs: mustprogress uwtable
define void @_ZNK19MeshLabPluginLogger3logEN11GLLogStream6LevelsEPKc(ptr noundef nonnull align 8 dereferenceable(16) %0, i32 noundef %1, ptr noundef %2) #5 align 2 {
  %4 = alloca ptr, align 8
  %5 = alloca i32, align 4
  %6 = alloca ptr, align 8
  store ptr %0, ptr %4, align 8
  store i32 %1, ptr %5, align 4
  store ptr %2, ptr %6, align 8
  %7 = load ptr, ptr %4, align 8
  %8 = getelementptr inbounds %class.MeshLabPluginLogger, ptr %7, i32 0, i32 1
  %9 = load ptr, ptr %8, align 8
  %10 = icmp ne ptr %9, null
  br i1 %10, label %11, label %16

11:                                               ; preds = %3
  %12 = getelementptr inbounds %class.MeshLabPluginLogger, ptr %7, i32 0, i32 1
  %13 = load ptr, ptr %12, align 8
  %14 = load i32, ptr %5, align 4
  %15 = load ptr, ptr %6, align 8
  call void @_ZN11GLLogStream3logEiPKc(ptr noundef nonnull align 8 dereferenceable(40) %13, i32 noundef %14, ptr noundef %15)
  br label %16

16:                                               ; preds = %11, %3
  ret void
}